target datalayout = "e-m:e-p270:32:32-p271:32:32-p272:64:64-i64:64-i128:128-f80:128-n8:16:32:64-S128"
target triple = "x86_64-pc-linux-gnu"

%class.QModelIndex = type { i32, i32, i64, ptr }
%class.QVariant = type { %"struct.QVariant::Private" }
%"struct.QVariant::Private" = type { %union.anon.3, i64 }
%union.anon.3 = type { ptr, [16 x i8] }

; Function Attrs: inlinehint mustprogress nounwind null_pointer_is_valid sspstrong uwtable
define linkonce_odr void @_ZN8QVariant7PrivateUt_C2Ev(ptr noundef align 8 dereferenceable_or_null(24) %0) unnamed_addr #4 comdat align 2 {
  %2 = alloca ptr, align 8
  store ptr %0, ptr %2, align 8
  %3 = load ptr, ptr %2, align 8
  %4 = getelementptr inbounds i8, ptr %3, i64 24
  br label %5

5:                                                ; preds = %5, %1
  %6 = phi ptr [ %3, %1 ], [ %7, %5 ]
  store i8 0, ptr %6, align 1
  %7 = getelementptr inbounds i8, ptr %6, i64 1
  %8 = icmp eq ptr %7, %4
  br i1 %8, label %9, label %5

9:                                                ; preds = %5
  ret void
}

; Function Attrs: mustprogress nounwind null_pointer_is_valid sspstrong uwtable
define linkonce_odr void @_ZN8QVariant7PrivateC2Ev(ptr noundef align 8 dereferenceable_or_null(32) %0) unnamed_addr #8 comdat align 2 {
  %2 = alloca ptr, align 8
  store ptr %0, ptr %2, align 8
  %3 = load ptr, ptr %2, align 8
  %4 = getelementptr inbounds nuw %"struct.QVariant::Private", ptr %3, i32 0, i32 0
  call void @_ZN8QVariant7PrivateUt_C2Ev(ptr noundef align 8 dereferenceable_or_null(24) %4) #1
  %5 = getelementptr inbounds nuw %"struct.QVariant::Private", ptr %3, i32 0, i32 1
  %6 = load i64, ptr %5, align 8
  %7 = and i64 %6, -2
  %8 = or i64 %7, 0
  store i64 %8, ptr %5, align 8
  %9 = getelementptr inbounds nuw %"struct.QVariant::Private", ptr %3, i32 0, i32 1
  %10 = load i64, ptr %9, align 8
  %11 = and i64 %10, -3
  %12 = or i64 %11, 2
  store i64 %12, ptr %9, align 8
  %13 = getelementptr inbounds nuw %"struct.QVariant::Private", ptr %3, i32 0, i32 1
  %14 = load i64, ptr %13, align 8
  %15 = and i64 %14, 3
  %16 = or i64 %15, 0
  store i64 %16, ptr %13, align 8
  ret void
}

; Function Attrs: mustprogress nounwind null_pointer_is_valid sspstrong uwtable
define linkonce_odr void @_ZN8QVariantC2Ev(ptr noundef align 8 dereferenceable_or_null(32) %0) unnamed_addr #8 comdat align 2 {
  %2 = alloca ptr, align 8
  store ptr %0, ptr %2, align 8
  %3 = load ptr, ptr %2, align 8
  %4 = getelementptr inbounds nuw %class.QVariant, ptr %3, i32 0, i32 0
  call void @_ZN8QVariant7PrivateC2Ev(ptr noundef align 8 dereferenceable_or_null(32) %4) #1
  ret void
}

; Function Attrs: inlinehint mustprogress null_pointer_is_valid sspstrong uwtable
define linkonce_odr void @_ZNK11QModelIndex4dataEi(ptr dead_on_unwind noalias writable sret(%class.QVariant) align 8 %0, ptr noundef align 8 dereferenceable_or_null(24) %1, i32 noundef %2) #7 comdat align 2 {
  %4 = alloca ptr, align 8
  %5 = alloca ptr, align 8
  %6 = alloca i32, align 4
  store ptr %0, ptr %4, align 8
  store ptr %1, ptr %5, align 8
  store i32 %2, ptr %6, align 4
  %7 = load ptr, ptr %5, align 8
  %8 = getelementptr inbounds nuw %class.QModelIndex, ptr %7, i32 0, i32 3
  %9 = load ptr, ptr %8, align 8
  %10 = icmp ne ptr %9, null
  br i1 %10, label %11, label %18

11:                                               ; preds = %3
  %12 = getelementptr inbounds nuw %class.QModelIndex, ptr %7, i32 0, i32 3
  %13 = load ptr, ptr %12, align 8
  %14 = load i32, ptr %6, align 4
  %15 = load ptr, ptr %13, align 8
  %16 = getelementptr inbounds ptr, ptr %15, i64 18
  %17 = load ptr, ptr %16, align 8
  call void %17(ptr dead_on_unwind writable sret(%class.QVariant) align 8 %0, ptr noundef align 8 dereferenceable_or_null(16) %13, ptr noundef align 8 dereferenceable(24) %7, i32 noundef %14)
  br label %19

18:                                               ; preds = %3
  call void @_ZN8QVariantC2Ev(ptr noundef align 8 dereferenceable_or_null(32) %0) #1
  br label %19

19:                                               ; preds = %18, %11
  ret void
}

; Function Attrs: inlinehint mustprogress nounwind null_pointer_is_valid sspstrong uwtable
define linkonce_odr void @_ZN11QModelIndexC2Ev(ptr noundef align 8 dereferenceable_or_null(24) %0) unnamed_addr #4 comdat align 2 {
  %2 = alloca ptr, align 8
  store ptr %0, ptr %2, align 8
  %3 = load ptr, ptr %2, align 8
  %4 = getelementptr inbounds nuw %class.QModelIndex, ptr %3, i32 0, i32 0
  store i32 -1, ptr %4, align 8
  %5 = getelementptr inbounds nuw %class.QModelIndex, ptr %3, i32 0, i32 1
  store i32 -1, ptr %5, align 4
  %6 = getelementptr inbounds nuw %class.QModelIndex, ptr %3, i32 0, i32 2
  store i64 0, ptr %6, align 8
  %7 = getelementptr inbounds nuw %class.QModelIndex, ptr %3, i32 0, i32 3
  store ptr null, ptr %7, align 8
  ret void
}

; Function Attrs: mustprogress null_pointer_is_valid sspstrong uwtable
define noundef zeroext i1 @_ZNK12ProfileModel17userProfilesExistEv(ptr noundef align 8 dereferenceable_or_null(104) %0) #0 align 2 personality ptr @__gxx_personality_v0 {
  %2 = alloca ptr, align 8
  %3 = alloca i8, align 1
  %4 = alloca i32, align 4
  %5 = alloca %class.QModelIndex, align 8
  %6 = alloca %class.QModelIndex, align 8
  %7 = alloca %class.QModelIndex, align 8
  %8 = alloca %class.QVariant, align 8
  %9 = alloca ptr, align 8
  %10 = alloca i32, align 4
  %11 = alloca %class.QVariant, align 8
  %12 = alloca i1, align 1
  %13 = alloca i1, align 1
  store ptr %0, ptr %2, align 8
  %14 = load ptr, ptr %2, align 8
  call void @llvm.lifetime.start.p0(i64 1, ptr %3) #1
  store i8 0, ptr %3, align 1
  call void @llvm.lifetime.start.p0(i64 4, ptr %4) #1
  store i32 0, ptr %4, align 4
  br label %15

15:                                               ; preds = %71, %1
  %16 = load i32, ptr %4, align 4
  call void @llvm.lifetime.start.p0(i64 24, ptr %5) #1
  call void @_ZN11QModelIndexC2Ev(ptr noundef align 8 dereferenceable_or_null(24) %5) #1
  %17 = load ptr, ptr %14, align 8
  %18 = getelementptr inbounds ptr, ptr %17, i64 15
  %19 = load ptr, ptr %18, align 8
  %20 = call noundef i32 %19(ptr noundef align 8 dereferenceable_or_null(104) %14, ptr noundef align 8 dereferenceable(24) %5)
  %21 = icmp slt i32 %16, %20
  br i1 %21, label %22, label %26

22:                                               ; preds = %15
  %23 = load i8, ptr %3, align 1, !range !7, !noundef !8
  %24 = trunc i8 %23 to i1
  %25 = xor i1 %24, true
  br label %26

26:                                               ; preds = %22, %15
  %27 = phi i1 [ false, %15 ], [ %25, %22 ]
  call void @llvm.lifetime.end.p0(i64 24, ptr %5) #1
  br i1 %27, label %29, label %28

28:                                               ; preds = %26
  call void @llvm.lifetime.end.p0(i64 4, ptr %4) #1
  br label %74

29:                                               ; preds = %26
  call void @llvm.lifetime.start.p0(i64 24, ptr %6) #1
  %30 = load i32, ptr %4, align 4
  call void @llvm.lifetime.start.p0(i64 24, ptr %7) #1
  call void @_ZN11QModelIndexC2Ev(ptr noundef align 8 dereferenceable_or_null(24) %7) #1
  %31 = load ptr, ptr %14, align 8
  %32 = getelementptr inbounds ptr, ptr %31, i64 12
  %33 = load ptr, ptr %32, align 8
  call void %33(ptr dead_on_unwind writable sret(%class.QModelIndex) align 8 %6, ptr noundef align 8 dereferenceable_or_null(16) %14, i32 noundef %30, i32 noundef 0, ptr noundef align 8 dereferenceable(24) %7)
  call void @llvm.lifetime.end.p0(i64 24, ptr %7) #1
  call void @llvm.lifetime.start.p0(i64 32, ptr %8) #1
  call void @_ZNK11QModelIndex4dataEi(ptr dead_on_unwind writable sret(%class.QVariant) align 8 %8, ptr noundef align 8 dereferenceable_or_null(24) %6, i32 noundef 258)
  store i1 false, ptr %12, align 1
  store i1 false, ptr %13, align 1
  %34 = invoke noundef zeroext i1 @_ZNK8QVariant6toBoolEv(ptr noundef align 8 dereferenceable_or_null(32) %8)
          to label %35 unwind label %50

35:                                               ; preds = %29
  br i1 %34, label %41, label %36

36:                                               ; preds = %35
  call void @llvm.lifetime.start.p0(i64 32, ptr %11) #1
  store i1 true, ptr %12, align 1
  invoke void @_ZNK11QModelIndex4dataEi(ptr dead_on_unwind writable sret(%class.QVariant) align 8 %11, ptr noundef align 8 dereferenceable_or_null(24) %6, i32 noundef 257)
          to label %37 unwind label %54

37:                                               ; preds = %36
  store i1 true, ptr %13, align 1
  %38 = invoke noundef zeroext i1 @_ZNK8QVariant6toBoolEv(ptr noundef align 8 dereferenceable_or_null(32) %11)
          to label %39 unwind label %58

39:                                               ; preds = %37
  %40 = xor i1 %38, true
  br label %41

41:                                               ; preds = %39, %35
  %42 = phi i1 [ false, %35 ], [ %40, %39 ]
  %43 = load i1, ptr %13, align 1
  br i1 %43, label %44, label %45

44:                                               ; preds = %41
  call void @_ZN8QVariantD1Ev(ptr noundef align 8 dereferenceable_or_null(32) %11) #1
  br label %45

45:                                               ; preds = %44, %41
  %46 = load i1, ptr %12, align 1
  br i1 %46, label %47, label %48

47:                                               ; preds = %45
  call void @llvm.lifetime.end.p0(i64 32, ptr %11) #1
  br label %48

48:                                               ; preds = %47, %45
  call void @_ZN8QVariantD1Ev(ptr noundef align 8 dereferenceable_or_null(32) %8) #1
  call void @llvm.lifetime.end.p0(i64 32, ptr %8) #1
  br i1 %42, label %49, label %70

49:                                               ; preds = %48
  store i8 1, ptr %3, align 1
  br label %70

50:                                               ; preds = %29
  %51 = landingpad { ptr, i32 }
          cleanup
  %52 = extractvalue { ptr, i32 } %51, 0
  store ptr %52, ptr %9, align 8
  %53 = extractvalue { ptr, i32 } %51, 1
  store i32 %53, ptr %10, align 4
  br label %69

54:                                               ; preds = %36
  %55 = landingpad { ptr, i32 }
          cleanup
  %56 = extractvalue { ptr, i32 } %55, 0
  store ptr %56, ptr %9, align 8
  %57 = extractvalue { ptr, i32 } %55, 1
  store i32 %57, ptr %10, align 4
  br label %65

58:                                               ; preds = %37
  %59 = landingpad { ptr, i32 }
          cleanup
  %60 = extractvalue { ptr, i32 } %59, 0
  store ptr %60, ptr %9, align 8
  %61 = extractvalue { ptr, i32 } %59, 1
  store i32 %61, ptr %10, align 4
  %62 = load i1, ptr %13, align 1
  br i1 %62, label %63, label %64

63:                                               ; preds = %58
  call void @_ZN8QVariantD1Ev(ptr noundef align 8 dereferenceable_or_null(32) %11) #1
  br label %64

64:                                               ; preds = %63, %58
  br label %65

65:                                               ; preds = %64, %54
  %66 = load i1, ptr %12, align 1
  br i1 %66, label %67, label %68

67:                                               ; preds = %65
  call void @llvm.lifetime.end.p0(i64 32, ptr %11) #1
  br label %68

68:                                               ; preds = %67, %65
  br label %69

69:                                               ; preds = %68, %50
  call void @_ZN8QVariantD1Ev(ptr noundef align 8 dereferenceable_or_null(32) %8) #1
  call void @llvm.lifetime.end.p0(i64 32, ptr %8) #1
  call void @llvm.lifetime.end.p0(i64 24, ptr %6) #1
  call void @llvm.lifetime.end.p0(i64 4, ptr %4) #1
  call void @llvm.lifetime.end.p0(i64 1, ptr %3) #1
  br label %77

70:                                               ; preds = %49, %48
  call void @llvm.lifetime.end.p0(i64 24, ptr %6) #1
  br label %71

71:                                               ; preds = %70
  %72 = load i32, ptr %4, align 4
  %73 = add i32 %72, 1
  store i32 %73, ptr %4, align 4
  br label %15, !llvm.loop !14

74:                                               ; preds = %28
  %75 = load i8, ptr %3, align 1, !range !7, !noundef !8
  %76 = trunc i8 %75 to i1
  call void @llvm.lifetime.end.p0(i64 1, ptr %3) #1
  ret i1 %76

77:                                               ; preds = %69
  %78 = load ptr, ptr %9, align 8
  %79 = load i32, ptr %10, align 4
  %80 = insertvalue { ptr, i32 } poison, ptr %78, 0
  %81 = insertvalue { ptr, i32 } %80, i32 %79, 1
  resume { ptr, i32 } %81
}