; Function Attrs: mustprogress null_pointer_is_valid sspstrong uwtable
define noundef zeroext i1 @_ZNK12ProfileModel17userProfilesExistEv(ptr noundef align 8 dereferenceable_or_null(104) %0) local_unnamed_addr #0 align 2 personality ptr @__gxx_personality_v0 {
  %2 = alloca %class.QModelIndex, align 8
  %3 = alloca %class.QModelIndex, align 8
  %4 = alloca %class.QModelIndex, align 8
  %5 = alloca %class.QVariant, align 8
  %6 = alloca %class.QVariant, align 8
  %7 = getelementptr inbounds nuw i8, ptr %2, i64 4
  %8 = getelementptr inbounds nuw i8, ptr %2, i64 8
  call void @llvm.lifetime.start.p0(i64 24, ptr nonnull %2) #26
  store i32 -1, ptr %2, align 8
  store i32 -1, ptr %7, align 4
  call void @llvm.memset.p0.i64(ptr noundef nonnull align 8 dereferenceable(16) %8, i8 0, i64 16, i1 false)
  %9 = load ptr, ptr %0, align 8
  %10 = getelementptr inbounds nuw i8, ptr %9, i64 120
  %11 = load ptr, ptr %10, align 8
  %12 = call noundef i32 %11(ptr noundef align 8 dereferenceable_or_null(104) %0, ptr noundef nonnull align 8 dereferenceable(24) %2)
  %13 = icmp slt i32 %12, 1
  call void @llvm.lifetime.end.p0(i64 24, ptr nonnull %2) #26
  br i1 %13, label %._crit_edge, label %.lr.ph

.lr.ph:                                           ; preds = %1
  %14 = getelementptr inbounds nuw i8, ptr %4, i64 4
  %15 = getelementptr inbounds nuw i8, ptr %4, i64 8
  %16 = getelementptr inbounds nuw i8, ptr %3, i64 16
  %17 = getelementptr inbounds nuw i8, ptr %5, i64 24
  %18 = getelementptr inbounds nuw i8, ptr %6, i64 24
  br label %19

._crit_edge:                                      ; preds = %.critedge.thread, %1
  %.016.lcssa = phi i1 [ false, %1 ], [ %40, %.critedge.thread ]
  ret i1 %.016.lcssa

19:                                               ; preds = %.lr.ph, %.critedge.thread
  %.01526 = phi i32 [ 0, %.lr.ph ], [ %41, %.critedge.thread ]
  call void @llvm.lifetime.start.p0(i64 24, ptr nonnull %3) #26
  call void @llvm.lifetime.start.p0(i64 24, ptr nonnull %4) #26
  store i32 -1, ptr %4, align 8
  store i32 -1, ptr %14, align 4
  call void @llvm.memset.p0.i64(ptr noundef nonnull align 8 dereferenceable(16) %15, i8 0, i64 16, i1 false)
  %20 = load ptr, ptr %0, align 8
  %21 = getelementptr inbounds nuw i8, ptr %20, i64 96
  %22 = load ptr, ptr %21, align 8
  call void %22(ptr dead_on_unwind nonnull writable sret(%class.QModelIndex) align 8 %3, ptr noundef align 8 dereferenceable_or_null(16) %0, i32 noundef %.01526, i32 noundef 0, ptr noundef nonnull align 8 dereferenceable(24) %4)
  call void @llvm.lifetime.end.p0(i64 24, ptr nonnull %4) #26
  call void @llvm.lifetime.start.p0(i64 32, ptr nonnull %5) #26
  call void @llvm.experimental.noalias.scope.decl(metadata !61)
  %23 = load ptr, ptr %16, align 8, !noalias !61
  %.not.i = icmp eq ptr %23, null
  br i1 %.not.i, label %28, label %24

24:                                               ; preds = %19
  %25 = load ptr, ptr %23, align 8, !noalias !61
  %26 = getelementptr inbounds nuw i8, ptr %25, i64 144
  %27 = load ptr, ptr %26, align 8, !noalias !61
  call void %27(ptr dead_on_unwind nonnull writable sret(%class.QVariant) align 8 %5, ptr noundef nonnull align 8 dereferenceable_or_null(16) %23, ptr noundef nonnull align 8 dereferenceable(24) dereferenceable_or_null(24) %3, i32 noundef 258)
  br label %_ZNK11QModelIndex4dataEi.exit

28:                                               ; preds = %19
  call void @llvm.memset.p0.i64(ptr noundef nonnull align 8 dereferenceable(32) %5, i8 0, i64 24, i1 false), !alias.scope !61
  store i64 2, ptr %17, align 8, !alias.scope !61
  br label %_ZNK11QModelIndex4dataEi.exit

_ZNK11QModelIndex4dataEi.exit:                    ; preds = %24, %28
  %29 = invoke noundef zeroext i1 @_ZNK8QVariant6toBoolEv(ptr noundef nonnull align 8 dereferenceable_or_null(32) %5)
          to label %30 unwind label %47

30:                                               ; preds = %_ZNK11QModelIndex4dataEi.exit
  br i1 %29, label %.critedge.thread, label %31

31:                                               ; preds = %30
  call void @llvm.lifetime.start.p0(i64 32, ptr nonnull %6) #26
  call void @llvm.experimental.noalias.scope.decl(metadata !64)
  %32 = load ptr, ptr %16, align 8, !noalias !64
  %.not.i21 = icmp eq ptr %32, null
  br i1 %.not.i21, label %37, label %33

33:                                               ; preds = %31
  %34 = load ptr, ptr %32, align 8, !noalias !64
  %35 = getelementptr inbounds nuw i8, ptr %34, i64 144
  %36 = load ptr, ptr %35, align 8, !noalias !64
  invoke void %36(ptr dead_on_unwind nonnull writable sret(%class.QVariant) align 8 %6, ptr noundef nonnull align 8 dereferenceable_or_null(16) %32, ptr noundef nonnull align 8 dereferenceable(24) dereferenceable_or_null(24) %3, i32 noundef 257)
          to label %_ZNK11QModelIndex4dataEi.exit22 unwind label %49

37:                                               ; preds = %31
  call void @llvm.memset.p0.i64(ptr noundef nonnull align 8 dereferenceable(32) %6, i8 0, i64 24, i1 false), !alias.scope !64
  store i64 2, ptr %18, align 8, !alias.scope !64
  br label %_ZNK11QModelIndex4dataEi.exit22

_ZNK11QModelIndex4dataEi.exit22:                  ; preds = %37, %33
  %38 = invoke noundef zeroext i1 @_ZNK8QVariant6toBoolEv(ptr noundef nonnull align 8 dereferenceable_or_null(32) %6)
          to label %.critedge unwind label %51

.critedge:                                        ; preds = %_ZNK11QModelIndex4dataEi.exit22
  %39 = xor i1 %38, true
  call void @_ZN8QVariantD1Ev(ptr noundef nonnull align 8 dereferenceable_or_null(32) %6) #26
  call void @llvm.lifetime.end.p0(i64 32, ptr nonnull %6) #26
  br label %.critedge.thread

.critedge.thread:                                 ; preds = %30, %.critedge
  %40 = phi i1 [ %39, %.critedge ], [ false, %30 ]
  call void @_ZN8QVariantD1Ev(ptr noundef nonnull align 8 dereferenceable_or_null(32) %5) #26
  call void @llvm.lifetime.end.p0(i64 32, ptr nonnull %5) #26
  call void @llvm.lifetime.end.p0(i64 24, ptr nonnull %3) #26
  %41 = add nuw nsw i32 %.01526, 1
  call void @llvm.lifetime.start.p0(i64 24, ptr nonnull %2) #26
  store i32 -1, ptr %2, align 8
  store i32 -1, ptr %7, align 4
  call void @llvm.memset.p0.i64(ptr noundef nonnull align 8 dereferenceable(16) %8, i8 0, i64 16, i1 false)
  %42 = load ptr, ptr %0, align 8
  %43 = getelementptr inbounds nuw i8, ptr %42, i64 120
  %44 = load ptr, ptr %43, align 8
  %45 = call noundef i32 %44(ptr noundef align 8 dereferenceable_or_null(104) %0, ptr noundef nonnull align 8 dereferenceable(24) %2)
  %46 = icmp sge i32 %41, %45
  %.not18 = or i1 %40, %46
  call void @llvm.lifetime.end.p0(i64 24, ptr nonnull %2) #26
  br i1 %.not18, label %._crit_edge, label %19, !llvm.loop !67

47:                                               ; preds = %_ZNK11QModelIndex4dataEi.exit
  %48 = landingpad { ptr, i32 }
          cleanup
  br label %54

49:                                               ; preds = %33
  %50 = landingpad { ptr, i32 }
          cleanup
  br label %53

51:                                               ; preds = %_ZNK11QModelIndex4dataEi.exit22
  %52 = landingpad { ptr, i32 }
          cleanup
  call void @_ZN8QVariantD1Ev(ptr noundef nonnull align 8 dereferenceable_or_null(32) %6) #26
  br label %53

53:                                               ; preds = %49, %51
  %.pn = phi { ptr, i32 } [ %52, %51 ], [ %50, %49 ]
  call void @llvm.lifetime.end.p0(i64 32, ptr nonnull %6) #26
  br label %54

54:                                               ; preds = %53, %47
  %.pn.pn = phi { ptr, i32 } [ %.pn, %53 ], [ %48, %47 ]
  call void @_ZN8QVariantD1Ev(ptr noundef nonnull align 8 dereferenceable_or_null(32) %5) #26
  call void @llvm.lifetime.end.p0(i64 32, ptr nonnull %5) #26
  call void @llvm.lifetime.end.p0(i64 24, ptr nonnull %3) #26
  resume { ptr, i32 } %.pn.pn
}